target datalayout = "e-m:e-p270:32:32-p271:32:32-p272:64:64-i64:64-i128:128-f80:128-n8:16:32:64-S128"
target triple = "x86_64-pc-linux-gnu"

%struct.H5VL_connector_t = type { ptr, i64, ptr, ptr }
%struct.H5VL_object_t = type { ptr, ptr, i64 }

@.str = private unnamed_addr constant [106 x i8] c"generated/home/dtcxzyw/WorkSpace/Projects/compilers/llvm-opt-benchmark/bench/hdf5/hdf5/src/H5VLcallback.c\00", align 1
@H5E_CANTSET_g = external global i64, align 8
@H5E_VOL_g = external global i64, align 8
@H5VL_init_g = external global i8, align 1
@H5_libterm_g = external global i8, align 1
@H5E_FUNC_g = external global i64, align 8
@H5E_CANTINIT_g = external global i64, align 8
@.str.5 = private unnamed_addr constant [32 x i8] c"interface initialization failed\00", align 1
@.str.24 = private unnamed_addr constant [27 x i8] c"can't set VOL wrapper info\00", align 1
@H5E_CANTRESET_g = external global i64, align 8
@.str.26 = private unnamed_addr constant [29 x i8] c"can't reset VOL wrapper info\00", align 1
@H5E_CANTOPERATE_g = external global i64, align 8
@.str.77 = private unnamed_addr constant [45 x i8] c"unable to execute datatype optional callback\00", align 1
@__func__.H5VL_datatype_optional_op = private unnamed_addr constant [26 x i8] c"H5VL_datatype_optional_op\00", align 1

; Function Attrs: nounwind uwtable
define i32 @H5VL_datatype_optional_op(ptr noundef %0, ptr noundef %1, i64 noundef %2, ptr noundef %3, ptr noundef %4) #0 {
  %6 = alloca ptr, align 8
  %7 = alloca ptr, align 8
  %8 = alloca i64, align 8
  %9 = alloca ptr, align 8
  %10 = alloca ptr, align 8
  %11 = alloca ptr, align 8
  %12 = alloca ptr, align 8
  %13 = alloca i8, align 1
  %14 = alloca i32, align 4
  %15 = alloca i8, align 1
  store ptr %0, ptr %6, align 8, !tbaa !58
  store ptr %1, ptr %7, align 8, !tbaa !75
  store i64 %2, ptr %8, align 8, !tbaa !3
  store ptr %3, ptr %9, align 8, !tbaa !42
  store ptr %4, ptr %10, align 8, !tbaa !78
  call void @llvm.lifetime.start.p0(i64 8, ptr %11) #8
  store ptr null, ptr %11, align 8, !tbaa !58
  call void @llvm.lifetime.start.p0(i64 8, ptr %12) #8
  %16 = load ptr, ptr %10, align 8, !tbaa !78
  %17 = icmp ne ptr %16, null
  br i1 %17, label %18, label %20

18:                                               ; preds = %5
  %19 = load ptr, ptr %10, align 8, !tbaa !78
  br label %21

20:                                               ; preds = %5
  br label %21

21:                                               ; preds = %20, %18
  %22 = phi ptr [ %19, %18 ], [ %11, %20 ]
  store ptr %22, ptr %12, align 8, !tbaa !78
  call void @llvm.lifetime.start.p0(i64 1, ptr %13) #8
  store i8 0, ptr %13, align 1, !tbaa !9
  call void @llvm.lifetime.start.p0(i64 4, ptr %14) #8
  store i32 0, ptr %14, align 4, !tbaa !7
  call void @llvm.lifetime.start.p0(i64 1, ptr %15) #8
  store i8 0, ptr %15, align 1, !tbaa !9
  %23 = load i8, ptr @H5VL_init_g, align 1, !tbaa !9, !range !14, !noundef !15
  %24 = trunc i8 %23 to i1
  br i1 %24, label %29, label %25

25:                                               ; preds = %21
  %26 = load i8, ptr @H5_libterm_g, align 1, !tbaa !9, !range !14, !noundef !15
  %27 = trunc i8 %26 to i1
  %28 = xor i1 %27, true
  br label %29

29:                                               ; preds = %25, %21
  %30 = phi i1 [ false, %21 ], [ %28, %25 ]
  %31 = xor i1 %30, true
  %32 = xor i1 %31, true
  %33 = zext i1 %32 to i32
  %34 = sext i32 %33 to i64
  %35 = call i64 @llvm.expect.i64(i64 %34, i64 0)
  %36 = icmp ne i64 %35, 0
  br i1 %36, label %37, label %60

37:                                               ; preds = %29
  store i8 1, ptr @H5VL_init_g, align 1, !tbaa !9
  %38 = call i32 @H5VL__init_package()
  %39 = icmp slt i32 %38, 0
  br i1 %39, label %40, label %59

40:                                               ; preds = %37
  store i8 0, ptr @H5VL_init_g, align 1, !tbaa !9
  br label %41

41:                                               ; preds = %40
  br label %42

42:                                               ; preds = %41
  br label %43

43:                                               ; preds = %42
  %44 = load i64, ptr @H5E_FUNC_g, align 8, !tbaa !3
  %45 = load i64, ptr @H5E_CANTINIT_g, align 8, !tbaa !3
  %46 = call i32 (ptr, ptr, i32, i64, i64, ptr, ...) @H5E_printf_stack(ptr noundef @.str, ptr noundef @__func__.H5VL_datatype_optional_op, i32 noundef 3379, i64 noundef %44, i64 noundef %45, ptr noundef @.str.5)
  br label %47

47:                                               ; preds = %43
  br label %48

48:                                               ; preds = %47
  store i8 1, ptr %15, align 1, !tbaa !9
  %49 = load i8, ptr %15, align 1, !tbaa !9, !range !14, !noundef !15
  %50 = trunc i8 %49 to i1
  %51 = zext i1 %50 to i8
  store i8 %51, ptr %15, align 1, !tbaa !9
  br label %52

52:                                               ; preds = %48
  br label %53

53:                                               ; preds = %52
  br label %54

54:                                               ; preds = %53
  store i32 -1, ptr %14, align 4, !tbaa !7
  br label %137

55:                                               ; No predecessors!
  br label %56

56:                                               ; preds = %55
  br label %57

57:                                               ; preds = %56
  br label %58

58:                                               ; preds = %57
  br label %59

59:                                               ; preds = %58, %37
  br label %60

60:                                               ; preds = %59, %29
  %61 = load i8, ptr @H5VL_init_g, align 1, !tbaa !9, !range !14, !noundef !15
  %62 = trunc i8 %61 to i1
  br i1 %62, label %67, label %63

63:                                               ; preds = %60
  %64 = load i8, ptr @H5_libterm_g, align 1, !tbaa !9, !range !14, !noundef !15
  %65 = trunc i8 %64 to i1
  %66 = xor i1 %65, true
  br label %67

67:                                               ; preds = %63, %60
  %68 = phi i1 [ true, %60 ], [ %66, %63 ]
  %69 = xor i1 %68, true
  %70 = xor i1 %69, true
  %71 = zext i1 %70 to i32
  %72 = sext i32 %71 to i64
  %73 = call i64 @llvm.expect.i64(i64 %72, i64 1)
  %74 = icmp ne i64 %73, 0
  br i1 %74, label %75, label %160

75:                                               ; preds = %67
  %76 = load ptr, ptr %6, align 8, !tbaa !58
  %77 = load ptr, ptr %12, align 8, !tbaa !78
  store ptr %76, ptr %77, align 8, !tbaa !58
  %78 = load ptr, ptr %12, align 8, !tbaa !78
  %79 = load ptr, ptr %78, align 8, !tbaa !58
  %80 = call i32 @H5VL_set_vol_wrapper(ptr noundef %79)
  %81 = icmp slt i32 %80, 0
  br i1 %81, label %82, label %101

82:                                               ; preds = %75
  br label %83

83:                                               ; preds = %82
  br label %84

84:                                               ; preds = %83
  br label %85

85:                                               ; preds = %84
  %86 = load i64, ptr @H5E_VOL_g, align 8, !tbaa !3
  %87 = load i64, ptr @H5E_CANTSET_g, align 8, !tbaa !3
  %88 = call i32 (ptr, ptr, i32, i64, i64, ptr, ...) @H5E_printf_stack(ptr noundef @.str, ptr noundef @__func__.H5VL_datatype_optional_op, i32 noundef 3389, i64 noundef %86, i64 noundef %87, ptr noundef @.str.24)
  br label %89

89:                                               ; preds = %85
  br label %90

90:                                               ; preds = %89
  store i8 1, ptr %15, align 1, !tbaa !9
  %91 = load i8, ptr %15, align 1, !tbaa !9, !range !14, !noundef !15
  %92 = trunc i8 %91 to i1
  %93 = zext i1 %92 to i8
  store i8 %93, ptr %15, align 1, !tbaa !9
  br label %94

94:                                               ; preds = %90
  br label %95

95:                                               ; preds = %94
  br label %96

96:                                               ; preds = %95
  store i32 -1, ptr %14, align 4, !tbaa !7
  br label %137

97:                                               ; No predecessors!
  br label %98

98:                                               ; preds = %97
  br label %99

99:                                               ; preds = %98
  br label %100

100:                                              ; preds = %99
  br label %101

101:                                              ; preds = %100, %75
  store i8 1, ptr %13, align 1, !tbaa !9
  %102 = load ptr, ptr %12, align 8, !tbaa !78
  %103 = load ptr, ptr %102, align 8, !tbaa !58
  %104 = getelementptr inbounds nuw %struct.H5VL_object_t, ptr %103, i32 0, i32 0
  %105 = load ptr, ptr %104, align 8, !tbaa !62
  %106 = load ptr, ptr %12, align 8, !tbaa !78
  %107 = load ptr, ptr %106, align 8, !tbaa !58
  %108 = getelementptr inbounds nuw %struct.H5VL_object_t, ptr %107, i32 0, i32 1
  %109 = load ptr, ptr %108, align 8, !tbaa !64
  %110 = getelementptr inbounds nuw %struct.H5VL_connector_t, ptr %109, i32 0, i32 0
  %111 = load ptr, ptr %110, align 8, !tbaa !16
  %112 = load ptr, ptr %7, align 8, !tbaa !75
  %113 = load i64, ptr %8, align 8, !tbaa !3
  %114 = load ptr, ptr %9, align 8, !tbaa !42
  %115 = call i32 @H5VL__datatype_optional(ptr noundef %105, ptr noundef %111, ptr noundef %112, i64 noundef %113, ptr noundef %114)
  %116 = icmp slt i32 %115, 0
  br i1 %116, label %117, label %136

117:                                              ; preds = %101
  br label %118

118:                                              ; preds = %117
  br label %119

119:                                              ; preds = %118
  br label %120

120:                                              ; preds = %119
  %121 = load i64, ptr @H5E_VOL_g, align 8, !tbaa !3
  %122 = load i64, ptr @H5E_CANTOPERATE_g, align 8, !tbaa !3
  %123 = call i32 (ptr, ptr, i32, i64, i64, ptr, ...) @H5E_printf_stack(ptr noundef @.str, ptr noundef @__func__.H5VL_datatype_optional_op, i32 noundef 3394, i64 noundef %121, i64 noundef %122, ptr noundef @.str.77)
  br label %124

124:                                              ; preds = %120
  br label %125

125:                                              ; preds = %124
  store i8 1, ptr %15, align 1, !tbaa !9
  %126 = load i8, ptr %15, align 1, !tbaa !9, !range !14, !noundef !15
  %127 = trunc i8 %126 to i1
  %128 = zext i1 %127 to i8
  store i8 %128, ptr %15, align 1, !tbaa !9
  br label %129

129:                                              ; preds = %125
  br label %130

130:                                              ; preds = %129
  br label %131

131:                                              ; preds = %130
  store i32 -1, ptr %14, align 4, !tbaa !7
  br label %137

132:                                              ; No predecessors!
  br label %133

133:                                              ; preds = %132
  br label %134

134:                                              ; preds = %133
  br label %135

135:                                              ; preds = %134
  br label %136

136:                                              ; preds = %135, %101
  br label %137

137:                                              ; preds = %136, %131, %96, %54
  %138 = load i8, ptr %13, align 1, !tbaa !9, !range !14, !noundef !15
  %139 = trunc i8 %138 to i1
  br i1 %139, label %140, label %159

140:                                              ; preds = %137
  %141 = call i32 @H5VL_reset_vol_wrapper()
  %142 = icmp slt i32 %141, 0
  br i1 %142, label %143, label %159

143:                                              ; preds = %140
  br label %144

144:                                              ; preds = %143
  br label %145

145:                                              ; preds = %144
  br label %146

146:                                              ; preds = %145
  %147 = load i64, ptr @H5E_VOL_g, align 8, !tbaa !3
  %148 = load i64, ptr @H5E_CANTRESET_g, align 8, !tbaa !3
  %149 = call i32 (ptr, ptr, i32, i64, i64, ptr, ...) @H5E_printf_stack(ptr noundef @.str, ptr noundef @__func__.H5VL_datatype_optional_op, i32 noundef 3399, i64 noundef %147, i64 noundef %148, ptr noundef @.str.26)
  br label %150

150:                                              ; preds = %146
  br label %151

151:                                              ; preds = %150
  store i8 1, ptr %15, align 1, !tbaa !9
  %152 = load i8, ptr %15, align 1, !tbaa !9, !range !14, !noundef !15
  %153 = trunc i8 %152 to i1
  %154 = zext i1 %153 to i8
  store i8 %154, ptr %15, align 1, !tbaa !9
  br label %155

155:                                              ; preds = %151
  br label %156

156:                                              ; preds = %155
  store i32 -1, ptr %14, align 4, !tbaa !7
  br label %157

157:                                              ; preds = %156
  br label %158

158:                                              ; preds = %157
  br label %159

159:                                              ; preds = %158, %140, %137
  br label %160

160:                                              ; preds = %159, %67
  %161 = load i32, ptr %14, align 4, !tbaa !7
  call void @llvm.lifetime.end.p0(i64 1, ptr %15) #8
  call void @llvm.lifetime.end.p0(i64 4, ptr %14) #8
  call void @llvm.lifetime.end.p0(i64 1, ptr %13) #8
  call void @llvm.lifetime.end.p0(i64 8, ptr %12) #8
  call void @llvm.lifetime.end.p0(i64 8, ptr %11) #8
  ret i32 %161
}