; Function Attrs: nounwind uwtable
define range(i32 -1, 1) i32 @H5VL_datatype_optional_op(ptr noundef %0, ptr noundef %1, i64 noundef %2, ptr noundef %3, ptr noundef captures(address_is_null) %4) local_unnamed_addr #0 {
  %.not = icmp eq ptr %4, null
  %6 = load i8, ptr @H5VL_init_g, align 1, !tbaa !33, !range !35, !noundef !36
  %7 = trunc nuw i8 %6 to i1
  %8 = load i8, ptr @H5_libterm_g, align 1, !range !35
  %9 = trunc nuw i8 %8 to i1
  %10 = select i1 %7, i1 true, i1 %9
  br i1 %10, label %18, label %11, !prof !37

11:                                               ; preds = %5
  store i8 1, ptr @H5VL_init_g, align 1, !tbaa !33
  %12 = tail call i32 @H5VL__init_package() #7
  %13 = icmp slt i32 %12, 0
  br i1 %13, label %14, label %._crit_edge

._crit_edge:                                      ; preds = %11
  %.pre = load i8, ptr @H5VL_init_g, align 1, !tbaa !33, !range !35
  %.pre26 = load i8, ptr @H5_libterm_g, align 1, !range !35
  %.pre27 = trunc nuw i8 %.pre to i1
  %.pre28 = trunc nuw i8 %.pre26 to i1
  br label %18

14:                                               ; preds = %11
  store i8 0, ptr @H5VL_init_g, align 1, !tbaa !33
  %15 = load i64, ptr @H5E_FUNC_g, align 8, !tbaa !3
  %16 = load i64, ptr @H5E_CANTINIT_g, align 8, !tbaa !3
  %17 = tail call i32 (ptr, ptr, i32, i64, i64, ptr, ...) @H5E_printf_stack(ptr noundef nonnull @.str, ptr noundef nonnull @__func__.H5VL_datatype_optional_op, i32 noundef 3379, i64 noundef %15, i64 noundef %16, ptr noundef nonnull @.str.5) #7
  br label %48

18:                                               ; preds = %._crit_edge, %5
  %.pre-phi29 = phi i1 [ %.pre28, %._crit_edge ], [ %9, %5 ]
  %.pre-phi = phi i1 [ %.pre27, %._crit_edge ], [ %7, %5 ]
  %19 = xor i1 %.pre-phi29, true
  %20 = select i1 %.pre-phi, i1 true, i1 %19
  br i1 %20, label %21, label %48, !prof !37

21:                                               ; preds = %18
  br i1 %.not, label %.cont, label %.cont.thread

.cont:                                            ; preds = %21
  %22 = tail call i32 @H5VL_set_vol_wrapper(ptr noundef %0) #7
  %23 = icmp slt i32 %22, 0
  br i1 %23, label %26, label %.cont16

.cont.thread:                                     ; preds = %21
  store ptr %0, ptr %4, align 8, !tbaa !65
  %24 = tail call i32 @H5VL_set_vol_wrapper(ptr noundef %0) #7
  %25 = icmp slt i32 %24, 0
  br i1 %25, label %26, label %.else17

26:                                               ; preds = %.cont.thread, %.cont
  %27 = load i64, ptr @H5E_VOL_g, align 8, !tbaa !3
  %28 = load i64, ptr @H5E_CANTSET_g, align 8, !tbaa !3
  %29 = tail call i32 (ptr, ptr, i32, i64, i64, ptr, ...) @H5E_printf_stack(ptr noundef nonnull @.str, ptr noundef nonnull @__func__.H5VL_datatype_optional_op, i32 noundef 3389, i64 noundef %27, i64 noundef %28, ptr noundef nonnull @.str.24) #7
  br label %48

.else17:                                          ; preds = %.cont.thread
  %.else.val = load ptr, ptr %4, align 8, !tbaa !65
  br label %.cont16

.cont16:                                          ; preds = %.cont, %.else17
  %30 = phi ptr [ %.else.val, %.else17 ], [ %0, %.cont ]
  %31 = load ptr, ptr %30, align 8, !tbaa !55
  %32 = getelementptr inbounds nuw i8, ptr %30, i64 8
  %33 = load ptr, ptr %32, align 8, !tbaa !57
  %34 = load ptr, ptr %33, align 8, !tbaa !7
  %35 = tail call fastcc i32 @H5VL__datatype_optional(ptr noundef %31, ptr noundef %34, ptr noundef %1, i64 noundef %2, ptr noundef %3)
  %36 = icmp slt i32 %35, 0
  br i1 %36, label %37, label %41

37:                                               ; preds = %.cont16
  %38 = load i64, ptr @H5E_VOL_g, align 8, !tbaa !3
  %39 = load i64, ptr @H5E_CANTOPERATE_g, align 8, !tbaa !3
  %40 = tail call i32 (ptr, ptr, i32, i64, i64, ptr, ...) @H5E_printf_stack(ptr noundef nonnull @.str, ptr noundef nonnull @__func__.H5VL_datatype_optional_op, i32 noundef 3394, i64 noundef %38, i64 noundef %39, ptr noundef nonnull @.str.77) #7
  br label %41

41:                                               ; preds = %37, %.cont16
  %.0.ph = phi i32 [ 0, %.cont16 ], [ -1, %37 ]
  %42 = tail call i32 @H5VL_reset_vol_wrapper() #7
  %43 = icmp slt i32 %42, 0
  br i1 %43, label %44, label %48

44:                                               ; preds = %41
  %45 = load i64, ptr @H5E_VOL_g, align 8, !tbaa !3
  %46 = load i64, ptr @H5E_CANTRESET_g, align 8, !tbaa !3
  %47 = tail call i32 (ptr, ptr, i32, i64, i64, ptr, ...) @H5E_printf_stack(ptr noundef nonnull @.str, ptr noundef nonnull @__func__.H5VL_datatype_optional_op, i32 noundef 3399, i64 noundef %45, i64 noundef %46, ptr noundef nonnull @.str.26) #7
  br label %48

48:                                               ; preds = %14, %26, %41, %44, %18
  %.1 = phi i32 [ -1, %44 ], [ %.0.ph, %41 ], [ 0, %18 ], [ -1, %14 ], [ -1, %26 ]
  ret i32 %.1
}